ADDRESS (WORD)     ADDRESS (BYTE)    OPCODE     MNEMONIC
0100               200               1217       JP 217
0101               202               424c       SNE V2, 4c
0102               204               4954       SNE V9, 54
0103               206               5a20       SE Va, V2
0104               208               4279       SNE V2, 79
0105               20a               2044       CALL 044
0106               20c               6176       LD V1, 76
0107               20e               6964       LD V9, 64
0108               210               2057       CALL 057
0109               212               494e       SNE V9, 4e
010a               214               5445       SE V4, V4
010b               216               52a3       SE V2, Va
010c               218               4160       SNE V1, 60
010d               21a               0461       
010e               21c               0962       
010f               21e               0e67       
0110               220               04d0       
0111               222               1ef2       JP ef2
0112               224               1e70       JP e70
0113               226               0c30       
0114               228               4012       SNE V0, 12
0115               22a               21f0       CALL 1f0
0116               22c               0a00       
0117               22e               e022       
0118               230               d9f0       DRW V9, Vf, 0
0119               232               0a00       
011a               234               e08e       
011b               236               70a3       ADD V0, a3
011c               238               1e6b       JP e6b
011d               23a               1fcc       JP fcc
011e               23c               1f8c       JP f8c
011f               23e               c4dc       RND V4, dc
0120               240               b23f       JP V0, 23f
0121               242               0112       
0122               244               49dc       SNE V9, dc
0123               246               b212       JP V0, 212
0124               248               39ca       SE V9, ca
0125               24a               077a       
0126               24c               017b       
0127               24e               fedc       
0128               250               b27a       JP V0, 27a
0129               252               ff3a       
012a               254               0012       
012b               256               4d7e       SNE Vd, 7e
012c               258               ff3e       
012d               25a               0012       
012e               25c               396b       SE V9, 6b
012f               25e               008c       
0130               260               706d       ADD V0, 6d
0131               262               006e       
0132               264               00a3       
0133               266               1bdd       JP bdd
0134               268               e33f       
0135               26a               0012       
0136               26c               c13b       RND V1, 3b
0137               26e               0012       
0138               270               8160       LD V1, V6
0139               272               05e0       
013a               274               9e12       SNE Ve, V1
013b               276               876b       
013c               278               0188       
013d               27a               d078       DRW V0, V7, 8
013e               27c               0289       
013f               27e               e079       
0140               280               03a3       
0141               282               1ed8       JP ed8
0142               284               9181       SNE V1, V8
0143               286               f060       
0144               288               05f0       
0145               28a               15f0       JP 5f0
0146               28c               0730       
0147               28e               0012       
0148               290               8b3b       
0149               292               0112       
014a               294               aba3       LD I, ba3
014b               296               1e31       JP e31
014c               298               01d8       
014d               29a               9179       SNE V1, V7
014e               29c               0139       
014f               29e               2012       CALL 012
0150               2a0               ab6b       LD I, b6b
0151               2a2               0031       
0152               2a4               007c       
0153               2a6               ff4c       
0154               2a8               0012       
0155               2aa               bba3       JP V0, ba3
0156               2ac               1bdd       JP bdd
0157               2ae               e37d       
0158               2b0               023d       
0159               2b2               4012       SNE V0, 12
015a               2b4               b96d       JP V0, 96d
015b               2b6               007e       
015c               2b8               0112       
015d               2ba               6500       LD V5, 0
015e               2bc               e077       
015f               2be               0212       
0160               2c0               2da3       CALL da3
0161               2c2               1bdd       JP bdd
0162               2c4               e360       
0163               2c6               1461       JP 461
0164               2c8               0262       
0165               2ca               0ba3       
0166               2cc               20d0       CALL 0d0
0167               2ce               1bf2       JP bf2
0168               2d0               1e70       JP e70
0169               2d2               0830       
016a               2d4               2c12       CALL c12
016b               2d6               cd12       RND Vd, 12
016c               2d8               d760       DRW V7, V6, 0
016d               2da               0a61       
016e               2dc               0d62       
016f               2de               05a3       
0170               2e0               07d0       
0171               2e2               15f2       JP 5f2
0172               2e4               1e70       JP e70
0173               2e6               0830       
0174               2e8               2a12       CALL a12
0175               2ea               e180       
0176               2ec               7070       ADD V0, 70
0177               2ee               fe80       
0178               2f0               06a3       
0179               2f2               87f0       LD V7, Vf
017a               2f4               33f2       SE V3, f2
017b               2f6               6560       LD V5, 60
017c               2f8               2df1       CALL df1
017d               2fa               2961       CALL 961
017e               2fc               0dd0       
017f               2fe               1570       JP 570
0180               300               05f2       
0181               302               29d0       CALL 9d0
0182               304               1500       JP 500
0183               306               ee83       
0184               308               8283       XOR V2, V8
0185               30a               82fb       
0186               30c               e808       
0187               30e               8805       SUB V8, V0
0188               310               e2be       
0189               312               a0b8       LD I, 0b8
018a               314               203e       CALL 03e
018b               316               8080       LD V0, V8
018c               318               8080       LD V0, V8
018d               31a               f880       
018e               31c               f8fc       
018f               31e               c0c0       RND V0, c0
0190               320               f981       
0191               322               dbcb       DRW Vb, Vc, b
0192               324               fb00       
0193               326               fa8a       
0194               328               9a99       SNE Va, V9
0195               32a               f8ef       
0196               32c               2ae8       CALL ae8
0197               32e               2929       CALL 929
0198               330               006f       
0199               332               682e       LD V8, 2e
019a               334               4c8f       SNE Vc, 8f
019b               336               bea0       JP V0, ea0
019c               338               b8b0       JP V0, 8b0
019d               33a               be00       JP V0, e00
019e               33c               be22       JP V0, e22
019f               33e               3e34       SE Ve, 34
01a0               340               b2d8       JP V0, 2d8
01a1               342               d800       DRW V8, V0, 0
01a2               344               c3c3       RND V3, c3
01a3               346               00d8       
01a4               348               d800       DRW V8, V0, 0
01a5               34a               c3c3       RND V3, c3
01a6               34c               00d8       
01a7               34e               d8c0       DRW V8, Vc, 0
01a8               350               c000       RND V0, 0
01a9               352               c0c0       RND V0, c0
01aa               354               00c0       
01ab               356               c000       RND V0, 0
01ac               358               c0c0       RND V0, c0
01ad               35a               00db       
01ae               35c               dbdb       DRW Vb, Vd, b
01af               35e               db00       DRW Vb, V0, 0
01b0               360               1818       JP 818
01b1               362               0018       
01b2               364               1800       JP 800
01b3               366               1818       JP 818
01b4               368               00db       
01b5               36a               dbdb       DRW Vb, Vd, b
01b6               36c               db00       DRW Vb, V0, 0
01b7               36e               1818       JP 818
01b8               370               0018       
01b9               372               1800       JP 800
01ba               374               1818       JP 818
01bb               376               0018       
01bc               378               18db       JP 8db
01bd               37a               db00       DRW Vb, V0, 0
01be               37c               0303       
01bf               37e               0018       
01c0               380               1800       JP 800
01c1               382               c0c0       RND V0, c0
01c2               384               00db       
