ADDRESS (WORD)     ADDRESS (BYTE)    OPCODE     MNEMONIC
0100               200               121d       JP 21d
0101               202               4849       SNE V8, 49
0102               204               4444       SNE V4, 44
0103               206               454e       SNE V5, 4e
0104               208               2120       CALL 120
0105               20a               312e       SE V1, 2e
0106               20c               3020       SE V0, 20
0107               20e               4279       SNE V2, 79
0108               210               2044       CALL 044
0109               212               6176       LD V1, 76
010a               214               6964       LD V9, 64
010b               216               2057       CALL 057
010c               218               494e       SNE V9, 4e
010d               21a               5445       SE V4, V4
010e               21c               52a4       SE V2, Va
010f               21e               3f60       SE Vf, 60
0110               220               0061       
0111               222               40f1       SNE V0, f1
0112               224               55a4       SE V5, Va
0113               226               3f60       SE Vf, 60
0114               228               00f0       
0115               22a               5500       SE V5, V0
0116               22c               e0a4       
0117               22e               7e60       ADD Ve, 60
0118               230               0c61       
0119               232               0862       
011a               234               0fd0       
011b               236               1f70       JP f70
011c               238               08f2       
011d               23a               1e30       JP e30
011e               23c               3412       SE V4, 12
011f               23e               35f0       SE V5, f0
0120               240               0a00       
0121               242               e0a4       
0122               244               c960       RND V9, 60
0123               246               1361       JP 361
0124               248               0d62       
0125               24a               04d0       
0126               24c               1470       JP 470
0127               24e               08f2       
0128               250               1e30       JP e30
0129               252               2b12       CALL b12
012a               254               4ba4       SNE Vb, a4
012b               256               1fff       JP fff
012c               258               65a4       LD V5, a4
012d               25a               2fff       CALL fff
012e               25c               5563       SE V5, V6
012f               25e               4066       SNE V0, 66
0130               260               08c1       
0131               262               0fc2       
0132               264               0fa4       
0133               266               2ff1       CALL ff1
0134               268               1ef0       JP ef0
0135               26a               6584       LD V5, 84
0136               26c               00a4       
0137               26e               2ff2       CALL ff2
0138               270               1ef0       JP ef0
0139               272               6585       LD V5, 85
013a               274               0080       
013b               276               40f0       SNE V0, f0
013c               278               55a4       SE V5, Va
013d               27a               2ff1       CALL ff1
013e               27c               1e80       JP e80
013f               27e               50f0       SE V0, Vf
0140               280               5573       SE V5, V7
0141               282               ff33       LD B, Vf
0142               284               0012       
0143               286               6100       LD V1, 0
0144               288               e060       
0145               28a               0061       
0146               28c               00a4       
0147               28e               77d0       ADD V7, d0
0148               290               1770       JP 770
0149               292               0830       
014a               294               2012       CALL 012
014b               296               8f60       LD Vf, V6
014c               298               0071       
014d               29a               0831       
014e               29c               2012       CALL 012
014f               29e               8f6c       
0150               2a0               006d       
0151               2a2               006e       
0152               2a4               00a4       
0153               2a6               3ff0       SE Vf, f0
0154               2a8               6570       LD V5, 70
0155               2aa               01f0       
0156               2ac               5523       SE V5, V2
0157               2ae               b96a       JP V0, 96a
0158               2b0               1023       JP 023
0159               2b2               5d23       SE Vd, V2
015a               2b4               cd8a       RND Vd, 8a
015b               2b6               9087       SNE V0, V8
015c               2b8               d088       DRW V0, V8, 8
015d               2ba               e023       
015e               2bc               5d23       SE Vd, V2
015f               2be               cd23       RND Vd, 23
0160               2c0               b9a4       JP V0, 9a4
0161               2c2               2ff9       CALL ff9
0162               2c4               1ef0       JP ef0
0163               2c6               6581       LD V5, 81
0164               2c8               00a4       
0165               2ca               2ffa       CALL ffa
0166               2cc               1ef0       JP ef0
0167               2ce               6550       LD V5, 50
0168               2d0               1013       JP 013
0169               2d2               2b23       CALL b23
016a               2d4               df60       DRW Vf, V6, 0
016b               2d6               2024       CALL 024
016c               2d8               0123       
016d               2da               df60       DRW Vf, V6, 0
016e               2dc               00a4       
016f               2de               2ff9       CALL ff9
0170               2e0               1ef0       JP ef0
0171               2e2               55a4       SE V5, Va
0172               2e4               2ffa       CALL ffa
0173               2e6               1ef0       JP ef0
0174               2e8               5576       SE V5, V7
0175               2ea               ff36       
0176               2ec               0012       
0177               2ee               a5a4       LD I, 5a4
0178               2f0               3ff1       SE Vf, f1
0179               2f2               6582       LD V5, 82
017a               2f4               0080       
017b               2f6               153f       JP 53f
017c               2f8               0013       
017d               2fa               0180       
017e               2fc               2081       CALL 081
017f               2fe               20f1       CALL 0f1
0180               300               5500       SE V5, V0
0181               302               e0a5       
0182               304               1960       JP 960
0183               306               1061       JP 061
0184               308               0762       
0185               30a               0ed0       
0186               30c               1f70       JP f70
0187               30e               08f2       
0188               310               1e30       JP e30
0189               312               3013       SE V0, 13
018a               314               0ba4       
018b               316               3ff1       SE Vf, f1
018c               318               6584       LD V5, 84
018d               31a               1083       JP 083
018e               31c               0066       
018f               31e               0924       
0190               320               0b66       
0191               322               0f83       
0192               324               4024       SNE V0, 24
0193               326               0bf0       
0194               328               0a12       
0195               32a               2523       CALL 523
0196               32c               db60       DRW Vb, V6, 0
0197               32e               8024       ADD V0, V2
0198               330               0123       
0199               332               dba4       DRW Vb, Va, 4
019a               334               2ffa       CALL ffa
019b               336               1ef0       JP ef0
019c               338               6570       LD V5, 70
019d               33a               ff23       
019e               33c               f3a4       
019f               33e               41f0       SNE V1, f0
01a0               340               1ed7       JP ed7
01a1               342               87a4       ADD V7, Va
01a2               344               77d7       ADD V7, d7
01a3               346               87a4       ADD V7, Va
01a4               348               2ff9       CALL ff9
01a5               34a               1ef0       JP ef0
01a6               34c               6570       LD V5, 70
01a7               34e               ff23       
01a8               350               f3a4       
01a9               352               41f0       SNE V1, f0
01aa               354               1edd       JP edd
01ab               356               e7a4       
01ac               358               77dd       ADD V7, dd
01ad               35a               e712       
01ae               35c               a5a4       LD I, 5a4
01af               35e               71dd       ADD V1, dd
01b0               360               e7fb       
01b1               362               0add       
01b2               364               e73b       
01b3               366               0413       
01b4               368               714d       ADD V1, 4d
01b5               36a               0013       
01b6               36c               5d7d       SE Vd, V7
01b7               36e               f87c       
01b8               370               ff3b       
01b9               372               0613       
01ba               374               7d4d       ADD Vd, 4d
01bb               376               1813       JP 813
01bc               378               5d7d       SE Vd, V7
01bd               37a               087c       
01be               37c               013b       
01bf               37e               0213       
01c0               380               894e       SHL V9{ , V4 }
01c1               382               0013       
01c2               384               5d7e       SE Vd, V7
01c3               386               f87c       
01c4               388               fc3b       
01c5               38a               0813       
01c6               38c               954e       SNE V5, V4
01c7               38e               1813       JP 813
01c8               390               5d7e       SE Vd, V7
01c9               392               087c       
01ca               394               043b       
01cb               396               0513       
01cc               398               5da4       SE Vd, Va
01cd               39a               2ffc       CALL ffc
01ce               39c               1ef0       JP ef0
01cf               39e               6540       LD V5, 40
01d0               3a0               0013       
01d1               3a2               5d89       SE Vd, V8
01d2               3a4               c099       RND V0, 99
01d3               3a6               a013       LD I, 013
01d4               3a8               5d70       SE Vd, V7
01d5               3aa               ffa4       
01d6               3ac               77dd       ADD V7, dd
01d7               3ae               e7a4       
01d8               3b0               4123       SNE V1, 23
01d9               3b2               f3f0       
01da               3b4               1edd       JP edd
01db               3b6               e700       
01dc               3b8               eea4       
01dd               3ba               d560       DRW V5, V6, 0
01de               3bc               2461       CALL 461
01df               3be               0a62       
01e0               3c0               0bd0       
01e1               3c2               1b70       JP b70
01e2               3c4               08f2       
01e3               3c6               1e30       JP e30
01e4               3c8               3c13       SE Vc, 13
01e5               3ca               c100       RND V1, 0
01e6               3cc               ee60       
01e7               3ce               3461       SE V4, 61
01e8               3d0               10a4       JP 0a4
01e9               3d2               f1d0       
01ea               3d4               15a4       JP 5a4
01eb               3d6               f6d0       
01ec               3d8               1500       JP 500
01ed               3da               eea4       
01ee               3dc               fb13       
01ef               3de               e1a5       
01f0               3e0               0a60       
01f1               3e2               2461       CALL 461
01f2               3e4               0d62       
01f3               3e6               05d0       
01f4               3e8               1570       JP 570
01f5               3ea               08f2       
01f6               3ec               1e30       JP e30
01f7               3ee               3c13       SE Vc, 13
01f8               3f0               e700       
01f9               3f2               ee81       
01fa               3f4               0081       
01fb               3f6               1480       JP 480
01fc               3f8               0480       
01fd               3fa               0480       
01fe               3fc               0480       
01ff               3fe               1500       JP 500
0200               400               eef0       
0201               402               15f0       JP 5f0
0202               404               0730       
0203               406               0014       
0204               408               0300       
0205               40a               eea4       
0206               40c               2ff3       CALL ff3
0207               40e               33f2       SE V3, f2
0208               410               6565       LD V5, 65
0209               412               23f1       CALL 3f1
020a               414               29d5       CALL 9d5
020b               416               6565       LD V5, 65
020c               418               28f2       CALL 8f2
020d               41a               29d5       CALL 9d5
020e               41c               6500       LD V5, 0
020f               41e               ee01       
0210               420               0203       
0211               422               0408       
0212               424               0706       
0213               426               0505       
0214               428               0607       
0215               42a               0804       
0216               42c               0302       
0217               42e               0101       
0218               430               0203       
0219               432               0408       
021a               434               0706       
021b               436               0505       
021c               438               0607       
021d               43a               0804       
021e               43c               0302       
021f               43e               0100       
0220               440               00fe       
0221               442               eec6       
0222               444               82c6       SHR V2{ , Vc }
0223               446               eefe       
0224               448               fec6       
0225               44a               c6c6       RND V6, c6
0226               44c               fefe       
0227               44e               c6aa       RND V6, aa
0228               450               82aa       
0229               452               c6fe       RND V6, fe
022a               454               c682       RND V6, 82
022b               456               8282       AND V2, V8
022c               458               c6fe       RND V6, fe
022d               45a               bad6       JP V0, ad6
022e               45c               eed6       
022f               45e               bafe       JP V0, afe
0230               460               eeee       
0231               462               82ee       SHL V2{ , Ve }
0232               464               eefe       
0233               466               82fe       SHL V2{ , Vf }
0234               468               82fe       SHL V2{ , Vf }
0235               46a               82fe       SHL V2{ , Vf }
0236               46c               aaaa       LD I, aaa
0237               46e               aaaa       LD I, aaa
0238               470               aafe       LD I, afe
0239               472               fefe       
023a               474               fefe       
023b               476               fefe       
023c               478               aad6       LD I, ad6
023d               47a               aad6       LD I, ad6
023e               47c               aafe       LD I, afe
023f               47e               8b88       
0240               480               f888       
0241               482               8b00       LD Vb, V0
0242               484               0000       
0243               486               0000       
0244               488               f048       
0245               48a               4848       SNE V8, 48
0246               48c               f2ef       
0247               48e               8484       ADD V4, V8
0248               490               84ef       
0249               492               0008       
024a               494               080a       
024b               496               008a       
024c               498               8aaa       
024d               49a               aa52       LD I, a52
024e               49c               3c92       SE Vc, 92
024f               49e               9292       SNE V2, V9
0250               4a0               3c00       SE Vc, 0
0251               4a2               e2a3       
0252               4a4               e300       
0253               4a6               8bc8       
0254               4a8               a898       LD I, 898
0255               4aa               88fa       
0256               4ac               83e2       AND V3, Ve
0257               4ae               82fa       
0258               4b0               0028       
0259               4b2               b890       JP V0, 890
025a               4b4               00ef       
025b               4b6               888e       SHL V8{ , V8 }
025c               4b8               888f       
025d               4ba               2121       CALL 121
025e               4bc               a160       LD I, 160
025f               4be               2100       CALL 100
0260               4c0               0000       
0261               4c2               0000       
0262               4c4               bc22       JP V0, c22
0263               4c6               3c28       SE Vc, 28
0264               4c8               a489       LD I, 489
0265               4ca               8aab       
0266               4cc               5297       SE V2, V9
0267               4ce               51d1       SE V1, Vd
0268               4d0               51c0       SE V1, Vc
0269               4d2               0000       
026a               4d4               156a       JP 56a
026b               4d6               8a8e       SHL Va{ , V8 }
026c               4d8               8a6a       
026d               4da               0064       
026e               4dc               8a8e       SHL Va{ , V8 }
026f               4de               8a6a       
0270               4e0               44aa       SNE V4, aa
0271               4e2               aaaa       LD I, aaa
0272               4e4               4400       SNE V4, 0
0273               4e6               ccaa       RND Vc, aa
0274               4e8               caaa       RND Va, aa
0275               4ea               ac6e       LD I, c6e
0276               4ec               884c       
0277               4ee               28ce       CALL 8ce
0278               4f0               0004       
0279               4f2               0c04       
027a               4f4               040e       
027b               4f6               0c12       
027c               4f8               0408       
027d               4fa               1e63       JP e63
027e               4fc               9494       SNE V4, V9
027f               4fe               9463       SNE V4, V6
0280               500               38a5       SE V8, a5
0281               502               b8a0       JP V0, 8a0
0282               504               21e1       CALL 1e1
0283               506               01c1       
0284               508               20c1       CALL 0c1
0285               50a               898a       
0286               50c               5222       SE V2, V2
0287               50e               21cf       CALL 1cf
0288               510               282f       CALL 82f
0289               512               28c8       CALL 8c8
028a               514               0282       
028b               516               0200       
028c               518               02ff       
028d               51a               808f       
028e               51c               908e       SNE V0, V8
028f               51e               819e       SHL V1{ , V9 }
0290               520               8091       OR V0, V9
0291               522               919f       SNE V1, V9
0292               524               9191       SNE V1, V9
0293               526               80ff       
0294               528               003c       
0295               52a               4040       SNE V0, 40
0296               52c               403c       SNE V0, 3c
0297               52e               007c       
0298               530               1010       JP 010
0299               532               107c       JP 07c
029a               534               00ff       
029b               536               0000       
029c               538               8000       LD V0, V0
029d               53a               8000       LD V0, V0
029e               53c               0000       
029f               53e               8000       LD V0, V0
02a0               540               8000       LD V0, V0
02a1               542               00ff       
02a2               544               0101       
02a3               546               0101       
02a4               548               0101       
02a5               54a               0101       
02a6               54c               0101       
02a7               54e               0101       
